target datalayout = "e-m:e-p270:32:32-p271:32:32-p272:64:64-i64:64-i128:128-f80:128-n8:16:32:64-S128"
target triple = "x86_64-pc-linux-gnu"

%struct.Fraig_NodeStruct_t_ = type { i32, i32, i32, i32, i32, i32, i32, ptr, ptr, ptr, ptr, ptr, ptr, ptr, ptr, i32, i32, ptr, ptr, ptr, ptr, ptr, ptr, ptr }

; Function Attrs: nounwind uwtable
define void @Fraig_DetectFanoutFreeConeMux_rec(ptr noundef %0, ptr noundef %1, ptr noundef %2, i32 noundef %3) #0 {
  %5 = alloca ptr, align 8
  %6 = alloca ptr, align 8
  %7 = alloca ptr, align 8
  %8 = alloca i32, align 4
  store ptr %0, ptr %5, align 8, !tbaa !8
  store ptr %1, ptr %6, align 8, !tbaa !74
  store ptr %2, ptr %7, align 8, !tbaa !74
  store i32 %3, ptr %8, align 4, !tbaa !10
  %9 = load ptr, ptr %5, align 8, !tbaa !8
  %10 = ptrtoint ptr %9 to i64
  %11 = and i64 %10, -2
  %12 = inttoptr i64 %11 to ptr
  store ptr %12, ptr %5, align 8, !tbaa !8
  %13 = load i32, ptr %8, align 4, !tbaa !10
  %14 = icmp ne i32 %13, 0
  br i1 %14, label %20, label %15

15:                                               ; preds = %4
  %16 = load ptr, ptr %5, align 8, !tbaa !8
  %17 = getelementptr inbounds nuw %struct.Fraig_NodeStruct_t_, ptr %16, i32 0, i32 3
  %18 = load i32, ptr %17, align 4, !tbaa !75
  %19 = icmp sgt i32 %18, 1
  br i1 %19, label %28, label %20

20:                                               ; preds = %15, %4
  %21 = load ptr, ptr %5, align 8, !tbaa !8
  %22 = call i32 @Fraig_NodeIsVar(ptr noundef %21)
  %23 = icmp ne i32 %22, 0
  br i1 %23, label %28, label %24

24:                                               ; preds = %20
  %25 = load ptr, ptr %5, align 8, !tbaa !8
  %26 = call i32 @Fraig_NodeIsMuxType(ptr noundef %25)
  %27 = icmp ne i32 %26, 0
  br i1 %27, label %32, label %28

28:                                               ; preds = %24, %20, %15
  %29 = load ptr, ptr %6, align 8, !tbaa !74
  %30 = load ptr, ptr %5, align 8, !tbaa !8
  %31 = call i32 @Fraig_NodeVecPushUnique(ptr noundef %29, ptr noundef %30)
  br label %76

32:                                               ; preds = %24
  %33 = load ptr, ptr %5, align 8, !tbaa !8
  %34 = getelementptr inbounds nuw %struct.Fraig_NodeStruct_t_, ptr %33, i32 0, i32 7
  %35 = load ptr, ptr %34, align 8, !tbaa !57
  %36 = ptrtoint ptr %35 to i64
  %37 = and i64 %36, -2
  %38 = inttoptr i64 %37 to ptr
  %39 = getelementptr inbounds nuw %struct.Fraig_NodeStruct_t_, ptr %38, i32 0, i32 7
  %40 = load ptr, ptr %39, align 8, !tbaa !57
  %41 = load ptr, ptr %6, align 8, !tbaa !74
  %42 = load ptr, ptr %7, align 8, !tbaa !74
  call void @Fraig_DetectFanoutFreeConeMux_rec(ptr noundef %40, ptr noundef %41, ptr noundef %42, i32 noundef 0)
  %43 = load ptr, ptr %5, align 8, !tbaa !8
  %44 = getelementptr inbounds nuw %struct.Fraig_NodeStruct_t_, ptr %43, i32 0, i32 7
  %45 = load ptr, ptr %44, align 8, !tbaa !57
  %46 = ptrtoint ptr %45 to i64
  %47 = and i64 %46, -2
  %48 = inttoptr i64 %47 to ptr
  %49 = getelementptr inbounds nuw %struct.Fraig_NodeStruct_t_, ptr %48, i32 0, i32 8
  %50 = load ptr, ptr %49, align 8, !tbaa !58
  %51 = load ptr, ptr %6, align 8, !tbaa !74
  %52 = load ptr, ptr %7, align 8, !tbaa !74
  call void @Fraig_DetectFanoutFreeConeMux_rec(ptr noundef %50, ptr noundef %51, ptr noundef %52, i32 noundef 0)
  %53 = load ptr, ptr %5, align 8, !tbaa !8
  %54 = getelementptr inbounds nuw %struct.Fraig_NodeStruct_t_, ptr %53, i32 0, i32 8
  %55 = load ptr, ptr %54, align 8, !tbaa !58
  %56 = ptrtoint ptr %55 to i64
  %57 = and i64 %56, -2
  %58 = inttoptr i64 %57 to ptr
  %59 = getelementptr inbounds nuw %struct.Fraig_NodeStruct_t_, ptr %58, i32 0, i32 7
  %60 = load ptr, ptr %59, align 8, !tbaa !57
  %61 = load ptr, ptr %6, align 8, !tbaa !74
  %62 = load ptr, ptr %7, align 8, !tbaa !74
  call void @Fraig_DetectFanoutFreeConeMux_rec(ptr noundef %60, ptr noundef %61, ptr noundef %62, i32 noundef 0)
  %63 = load ptr, ptr %5, align 8, !tbaa !8
  %64 = getelementptr inbounds nuw %struct.Fraig_NodeStruct_t_, ptr %63, i32 0, i32 8
  %65 = load ptr, ptr %64, align 8, !tbaa !58
  %66 = ptrtoint ptr %65 to i64
  %67 = and i64 %66, -2
  %68 = inttoptr i64 %67 to ptr
  %69 = getelementptr inbounds nuw %struct.Fraig_NodeStruct_t_, ptr %68, i32 0, i32 8
  %70 = load ptr, ptr %69, align 8, !tbaa !58
  %71 = load ptr, ptr %6, align 8, !tbaa !74
  %72 = load ptr, ptr %7, align 8, !tbaa !74
  call void @Fraig_DetectFanoutFreeConeMux_rec(ptr noundef %70, ptr noundef %71, ptr noundef %72, i32 noundef 0)
  %73 = load ptr, ptr %7, align 8, !tbaa !74
  %74 = load ptr, ptr %5, align 8, !tbaa !8
  %75 = call i32 @Fraig_NodeVecPushUnique(ptr noundef %73, ptr noundef %74)
  br label %76

76:                                               ; preds = %32, %28
  ret void
}