; Function Attrs: nounwind uwtable
define void @Fraig_DetectFanoutFreeConeMux_rec(ptr noundef %0, ptr noundef %1, ptr noundef %2, i32 noundef %3) local_unnamed_addr #0 {
  %5 = ptrtoint ptr %0 to i64
  %6 = and i64 %5, -2
  %7 = inttoptr i64 %6 to ptr
  %.not = icmp eq i32 %3, 0
  br i1 %.not, label %8, label %12

8:                                                ; preds = %4
  %9 = getelementptr inbounds nuw i8, ptr %7, i64 12
  %10 = load i32, ptr %9, align 4, !tbaa !78
  %11 = icmp sgt i32 %10, 1
  br i1 %11, label %common.ret, label %12

12:                                               ; preds = %8, %4
  %13 = tail call i32 @Fraig_NodeIsVar(ptr noundef %7) #10
  %.not20 = icmp eq i32 %13, 0
  br i1 %.not20, label %14, label %common.ret

14:                                               ; preds = %12
  %15 = tail call i32 @Fraig_NodeIsMuxType(ptr noundef %7) #10
  %.not21 = icmp eq i32 %15, 0
  br i1 %.not21, label %common.ret, label %17

common.ret:                                       ; preds = %8, %12, %14, %17
  %.sink = phi ptr [ %2, %17 ], [ %1, %14 ], [ %1, %12 ], [ %1, %8 ]
  %16 = tail call i32 @Fraig_NodeVecPushUnique(ptr noundef %.sink, ptr noundef %7) #10
  ret void

17:                                               ; preds = %14
  %18 = getelementptr inbounds nuw i8, ptr %7, i64 32
  %19 = load ptr, ptr %18, align 8, !tbaa !59
  %20 = ptrtoint ptr %19 to i64
  %21 = and i64 %20, -2
  %22 = inttoptr i64 %21 to ptr
  %23 = getelementptr inbounds nuw i8, ptr %22, i64 32
  %24 = load ptr, ptr %23, align 8, !tbaa !59
  tail call void @Fraig_DetectFanoutFreeConeMux_rec(ptr noundef %24, ptr noundef %1, ptr noundef %2, i32 noundef 0)
  %25 = load ptr, ptr %18, align 8, !tbaa !59
  %26 = ptrtoint ptr %25 to i64
  %27 = and i64 %26, -2
  %28 = inttoptr i64 %27 to ptr
  %29 = getelementptr inbounds nuw i8, ptr %28, i64 40
  %30 = load ptr, ptr %29, align 8, !tbaa !60
  tail call void @Fraig_DetectFanoutFreeConeMux_rec(ptr noundef %30, ptr noundef %1, ptr noundef %2, i32 noundef 0)
  %31 = getelementptr inbounds nuw i8, ptr %7, i64 40
  %32 = load ptr, ptr %31, align 8, !tbaa !60
  %33 = ptrtoint ptr %32 to i64
  %34 = and i64 %33, -2
  %35 = inttoptr i64 %34 to ptr
  %36 = getelementptr inbounds nuw i8, ptr %35, i64 32
  %37 = load ptr, ptr %36, align 8, !tbaa !59
  tail call void @Fraig_DetectFanoutFreeConeMux_rec(ptr noundef %37, ptr noundef %1, ptr noundef %2, i32 noundef 0)
  %38 = load ptr, ptr %31, align 8, !tbaa !60
  %39 = ptrtoint ptr %38 to i64
  %40 = and i64 %39, -2
  %41 = inttoptr i64 %40 to ptr
  %42 = getelementptr inbounds nuw i8, ptr %41, i64 40
  %43 = load ptr, ptr %42, align 8, !tbaa !60
  tail call void @Fraig_DetectFanoutFreeConeMux_rec(ptr noundef %43, ptr noundef %1, ptr noundef %2, i32 noundef 0)
  br label %common.ret
}